(dp0
Vengine
p1
Vxelatex
p2
sVpackages
p3
c__builtin__
set
p4
((lp5
Vtikz
p6
aVmulticol
p7
aVbooktabs
p8
aVbabel
p9
aVlistings
p10
aVtabularx
p11
aVgraphicx
p12
aVragged2e
p13
atp14
Rp15
sVfiles_with_guttermarks
p16
g4
((lp17
S'mpimg-beamer-demo.tex'
p18
aV/Users/martin/Desktop/mpimgbeamertheme/src/hsrmbeamertheme-master/./mpimg-beamer-demo.tex
p19
atp20
Rp21
sVsynctex
p22
I01
s.